; Function Attrs: mustprogress uwtable
define hidden noundef i32 @_ZNK4ncnn15GELU_x86_avx51215forward_inplaceERNS_3MatERKNS_6OptionE(ptr noundef nonnull align 8 dereferenceable(212) %0, ptr noundef nonnull align 8 dereferenceable(72) %1, ptr noundef nonnull align 8 dereferenceable(64) %2) unnamed_addr #4 align 2 {
  %4 = alloca i32, align 4
  %5 = alloca i32, align 4
  %6 = tail call i32 @__kmpc_global_thread_num(ptr nonnull @2)
  %7 = getelementptr inbounds nuw i8, ptr %0, i64 208
  %8 = load i32, ptr %7, align 8, !tbaa !4
  %.not = icmp eq i32 %8, 0
  br i1 %.not, label %9, label %11

9:                                                ; preds = %3
  %10 = tail call noundef i32 @_ZNK4ncnn4GELU15forward_inplaceERNS_3MatERKNS_6OptionE(ptr noundef nonnull align 8 dereferenceable(212) %0, ptr noundef nonnull align 8 dereferenceable(72) %1, ptr noundef nonnull align 8 dereferenceable(64) %2)
  br label %27

11:                                               ; preds = %3
  %12 = getelementptr inbounds nuw i8, ptr %1, i64 44
  %13 = load i32, ptr %12, align 4, !tbaa !27
  %14 = getelementptr inbounds nuw i8, ptr %1, i64 48
  %15 = load i32, ptr %14, align 8, !tbaa !30
  %16 = getelementptr inbounds nuw i8, ptr %1, i64 52
  %17 = load i32, ptr %16, align 4, !tbaa !31
  %18 = getelementptr inbounds nuw i8, ptr %1, i64 24
  %19 = load i32, ptr %18, align 8, !tbaa !32
  call void @llvm.lifetime.start.p0(i64 4, ptr nonnull %4) #7
  %20 = getelementptr inbounds nuw i8, ptr %1, i64 56
  %21 = load i32, ptr %20, align 8, !tbaa !33
  store i32 %21, ptr %4, align 4, !tbaa !34
  call void @llvm.lifetime.start.p0(i64 4, ptr nonnull %5) #7
  %22 = mul nsw i32 %15, %13
  %23 = mul nsw i32 %22, %17
  %24 = mul nsw i32 %23, %19
  store i32 %24, ptr %5, align 4, !tbaa !34
  %25 = getelementptr inbounds nuw i8, ptr %2, i64 4
  %26 = load i32, ptr %25, align 4, !tbaa !35
  tail call void @__kmpc_push_num_threads(ptr nonnull @2, i32 %6, i32 %26)
  call void (ptr, i32, ptr, ...) @__kmpc_fork_call(ptr nonnull @2, i32 3, ptr nonnull @_ZNK4ncnn15GELU_x86_avx51215forward_inplaceERNS_3MatERKNS_6OptionE.omp_outlined, ptr nonnull %4, ptr nonnull %1, ptr nonnull %5)
  call void @llvm.lifetime.end.p0(i64 4, ptr nonnull %5) #7
  call void @llvm.lifetime.end.p0(i64 4, ptr nonnull %4) #7
  br label %27

27:                                               ; preds = %11, %9
  %.0 = phi i32 [ 0, %11 ], [ %10, %9 ]
  ret i32 %.0
}